target datalayout = "e-m:e-p270:32:32-p271:32:32-p272:64:64-i64:64-i128:128-f80:128-n8:16:32:64-S128"
target triple = "x86_64-pc-linux-gnu"

%struct._object = type { %union.anon, ptr }
%union.anon = type { i64 }

@_Py_NoneStruct = external global %struct._object, align 8
@PyExc_OSError = external global ptr, align 8
@.str.73 = private unnamed_addr constant [11 x i8] c"O&:dlclose\00", align 1
@.str.74 = private unnamed_addr constant [16 x i8] c"dlclose() error\00", align 1

; Function Attrs: nounwind uwtable
define internal ptr @py_dl_close(ptr noundef %0, ptr noundef %1) #0 {
  %3 = alloca ptr, align 8
  %4 = alloca ptr, align 8
  %5 = alloca ptr, align 8
  %6 = alloca ptr, align 8
  %7 = alloca i32, align 4
  %8 = alloca ptr, align 8
  store ptr %0, ptr %4, align 8, !tbaa !9
  store ptr %1, ptr %5, align 8, !tbaa !9
  call void @llvm.lifetime.start.p0(i64 8, ptr %6) #10
  %9 = load ptr, ptr %5, align 8, !tbaa !9
  %10 = call i32 (ptr, ptr, ...) @PyArg_ParseTuple(ptr noundef %9, ptr noundef @.str.73, ptr noundef @_parse_voidp, ptr noundef %6)
  %11 = icmp ne i32 %10, 0
  br i1 %11, label %13, label %12

12:                                               ; preds = %2
  store ptr null, ptr %3, align 8
  store i32 1, ptr %7, align 4
  br label %28

13:                                               ; preds = %2
  %14 = load ptr, ptr %6, align 8, !tbaa !3
  %15 = call i32 @dlclose(ptr noundef %14) #10
  %16 = icmp ne i32 %15, 0
  br i1 %16, label %17, label %27

17:                                               ; preds = %13
  call void @llvm.lifetime.start.p0(i64 8, ptr %8) #10
  %18 = call ptr @dlerror() #10
  store ptr %18, ptr %8, align 8, !tbaa !27
  %19 = load ptr, ptr %8, align 8, !tbaa !27
  %20 = icmp ne ptr %19, null
  br i1 %20, label %21, label %24

21:                                               ; preds = %17
  %22 = load ptr, ptr @PyExc_OSError, align 8, !tbaa !9
  %23 = load ptr, ptr %8, align 8, !tbaa !27
  call void @_PyErr_SetLocaleString(ptr noundef %22, ptr noundef %23)
  store ptr null, ptr %3, align 8
  store i32 1, ptr %7, align 4
  br label %26

24:                                               ; preds = %17
  %25 = load ptr, ptr @PyExc_OSError, align 8, !tbaa !9
  call void @PyErr_SetString(ptr noundef %25, ptr noundef @.str.74)
  store ptr null, ptr %3, align 8
  store i32 1, ptr %7, align 4
  br label %26

26:                                               ; preds = %24, %21
  call void @llvm.lifetime.end.p0(i64 8, ptr %8) #10
  br label %28

27:                                               ; preds = %13
  store ptr @_Py_NoneStruct, ptr %3, align 8
  store i32 1, ptr %7, align 4
  br label %28

28:                                               ; preds = %27, %26, %12
  call void @llvm.lifetime.end.p0(i64 8, ptr %6) #10
  %29 = load ptr, ptr %3, align 8
  ret ptr %29
}