; Function Attrs: nounwind uwtable
define internal noundef ptr @py_dl_close(ptr readnone captures(none) %0, ptr noundef %1) #0 {
  %3 = alloca ptr, align 8
  call void @llvm.lifetime.start.p0(i64 8, ptr nonnull %3) #10
  %4 = call i32 (ptr, ptr, ...) @PyArg_ParseTuple(ptr noundef %1, ptr noundef nonnull @.str.73, ptr noundef nonnull @_parse_voidp, ptr noundef nonnull %3) #10
  %.not = icmp eq i32 %4, 0
  br i1 %.not, label %13, label %5

5:                                                ; preds = %2
  %6 = load ptr, ptr %3, align 8, !tbaa !41
  %7 = call i32 @dlclose(ptr noundef %6) #10
  %.not5 = icmp eq i32 %7, 0
  br i1 %.not5, label %13, label %8

8:                                                ; preds = %5
  %9 = call ptr @dlerror() #10
  %.not6 = icmp eq ptr %9, null
  %10 = load ptr, ptr @PyExc_OSError, align 8, !tbaa !3
  br i1 %.not6, label %12, label %11

11:                                               ; preds = %8
  call void @_PyErr_SetLocaleString(ptr noundef %10, ptr noundef nonnull %9) #10
  br label %13

12:                                               ; preds = %8
  call void @PyErr_SetString(ptr noundef %10, ptr noundef nonnull @.str.74) #10
  br label %13

13:                                               ; preds = %5, %11, %12, %2
  %.0 = phi ptr [ null, %2 ], [ null, %12 ], [ null, %11 ], [ @_Py_NoneStruct, %5 ]
  call void @llvm.lifetime.end.p0(i64 8, ptr nonnull %3) #10
  ret ptr %.0
}